Certificate:
    Data:
        Version: 3 (0x2)
        Serial Number: 0 (0x0)
    Signature Algorithm: sha256WithRSAEncryption
        Issuer: CN=Elytron ICA, ST=Elytron, C=UK, O=Intermediate Certificate Authority
        Validity
            Not Before: Feb  1 09:54:09 2018 GMT
            Not After : Jan 30 09:54:09 2028 GMT
        Subject: CN=Rove, ST=Elytron, C=UK, O=Elytron, OU=Elytron
        Subject Public Key Info:
            Public Key Algorithm: rsaEncryption
                Public-Key: (2048 bit)
                Modulus:
                    00:8b:5e:4d:40:eb:d1:55:61:e1:bd:14:b1:9e:e3:
                    9d:5e:fe:89:54:88:b2:2b:19:05:16:ae:f0:89:53:
                    58:17:27:f0:c0:83:d5:30:85:f5:4b:ce:b8:23:ee:
                    f7:31:d0:b8:6b:a4:07:c8:90:48:d3:f8:58:14:4c:
                    53:6e:d8:e8:96:29:9c:b0:6c:eb:37:3a:5e:2f:97:
                    9b:8a:45:36:07:c5:5b:9f:73:0c:e8:c0:bf:67:a6:
                    1d:e7:07:71:ed:03:21:fa:bf:22:eb:83:58:af:93:
                    74:2e:ed:72:55:df:86:c6:55:5c:87:c3:ac:3c:30:
                    33:2a:6f:fa:03:ff:b5:56:5e:2c:32:af:90:bd:84:
                    50:76:dc:ee:23:0f:bb:83:02:35:ee:7e:03:2c:0c:
                    46:1e:57:f6:f2:20:f9:8b:31:84:22:3e:25:03:3e:
                    e4:94:44:ea:7c:56:6c:e7:8c:71:f6:4a:21:a7:07:
                    1f:d5:11:90:62:73:91:66:83:70:79:d7:81:1a:c0:
                    3a:26:fd:ef:5f:11:bc:fc:90:54:6c:05:3e:95:8d:
                    27:ea:e7:ab:00:aa:3f:84:34:8e:14:f2:54:b7:ef:
                    e6:1a:f2:e7:c5:bb:98:04:b7:38:c4:47:be:1c:86:
                    1a:1a:b1:c9:1c:a0:07:ed:37:96:fd:3d:41:10:15:
                    bf:b3
                Exponent: 65537 (0x10001)
        X509v3 extensions:
            X509v3 Basic Constraints: 
                CA:FALSE
    Signature Algorithm: sha256WithRSAEncryption
         30:73:d0:3c:55:56:f0:f1:df:96:fa:3a:87:97:a4:02:5c:dc:
         e2:f4:1e:4f:43:da:37:b4:ec:35:e6:c2:0d:9e:77:c0:a7:70:
         07:77:32:b3:b4:61:c5:08:26:37:2c:a1:de:70:cf:7a:0f:fa:
         03:df:5e:45:ba:9b:8c:cd:70:05:f6:1c:f0:2e:57:21:32:56:
         60:db:cf:68:1e:6f:cb:94:f6:25:9b:8c:2e:b3:f6:0f:64:77:
         04:1c:54:96:10:fa:49:55:9e:b8:a9:30:1a:24:aa:b7:a3:ee:
         ba:21:9b:d2:74:d9:31:64:7c:b4:bd:95:a7:77:30:2f:fd:d4:
         c5:48:f2:95:83:c0:4e:17:2f:ef:82:a4:2c:1e:4a:74:79:b1:
         70:25:b3:ea:e1:4b:48:ac:d4:8a:46:b1:06:31:63:79:38:40:
         d7:5f:7d:6b:ea:57:2c:f6:0f:8e:08:49:36:06:32:c2:e1:68:
         17:ba:88:31:97:70:8b:81:37:61:69:a7:08:97:e4:42:38:f7:
         d9:60:63:ad:20:64:0e:f2:95:53:24:e6:18:90:6e:f1:b0:2f:
         df:88:e8:22:43:01:a3:92:41:0e:66:63:bd:bf:b6:68:5e:76:
         69:f9:6f:aa:90:08:cb:7c:2a:2a:9e:9e:9d:91:f5:dc:01:26:
         73:ba:94:3e
-----BEGIN CERTIFICATE-----
MIIDPDCCAiSgAwIBAgIBADANBgkqhkiG9w0BAQsFADBiMRQwEgYDVQQDDAtFbHl0
cm9uIElDQTEQMA4GA1UECAwHRWx5dHJvbjELMAkGA1UEBhMCVUsxKzApBgNVBAoM
IkludGVybWVkaWF0ZSBDZXJ0aWZpY2F0ZSBBdXRob3JpdHkwHhcNMTgwMjAxMDk1
NDA5WhcNMjgwMTMwMDk1NDA5WjBSMQ0wCwYDVQQDEwRSb3ZlMRAwDgYDVQQIEwdF
bHl0cm9uMQswCQYDVQQGEwJVSzEQMA4GA1UEChMHRWx5dHJvbjEQMA4GA1UECxMH
RWx5dHJvbjCCASIwDQYJKoZIhvcNAQEBBQADggEPADCCAQoCggEBAIteTUDr0VVh
4b0UsZ7jnV7+iVSIsisZBRau8IlTWBcn8MCD1TCF9UvOuCPu9zHQuGukB8iQSNP4
WBRMU27Y6JYpnLBs6zc6Xi+Xm4pFNgfFW59zDOjAv2emHecHce0DIfq/IuuDWK+T
dC7tclXfhsZVXIfDrDwwMypv+gP/tVZeLDKvkL2EUHbc7iMPu4MCNe5+AywMRh5X
9vIg+YsxhCI+JQM+5JRE6nxWbOeMcfZKIacHH9URkGJzkWaDcHnXgRrAOib9718R
vPyQVGwFPpWNJ+rnqwCqP4Q0jhTyVLfv5hry58W7mAS3OMRHvhyGGhqxyRygB+03
lv09QRAVv7MCAwEAAaMNMAswCQYDVR0TBAIwADANBgkqhkiG9w0BAQsFAAOCAQEA
MHPQPFVW8PHflvo6h5ekAlzc4vQeT0PaN7TsNebCDZ53wKdwB3cys7RhxQgmNyyh
3nDPeg/6A99eRbqbjM1wBfYc8C5XITJWYNvPaB5vy5T2JZuMLrP2D2R3BBxUlhD6
SVWeuKkwGiSqt6PuuiGb0nTZMWR8tL2Vp3cwL/3UxUjylYPAThcv74KkLB5KdHmx
cCWz6uFLSKzUikaxBjFjeThA1199a+pXLPYPjghJNgYywuFoF7qIMZdwi4E3YWmn
CJfkQjj32WBjrSBkDvKVUyTmGJBu8bAv34joIkMBo5JBDmZjvb+2aF52aflvqpAI
y3wqKp6enZH13AEmc7qUPg==
-----END CERTIFICATE-----
