Certificate:
    Data:
        Version: 3 (0x2)
        Serial Number: 1 (0x1)
    Signature Algorithm: sha1WithRSAEncryption
        Issuer: CN=Elytron CA, ST=Elytron, C=UK/emailAddress=elytron@wildfly.org, O=Root Certificate Authority
        Validity
            Not Before: Jan 29 10:40:35 2016 GMT
            Not After : Jan 26 10:40:35 2026 GMT
        Subject: CN=Firefly, ST=Elytron, C=UK, O=Elytron, OU=Elytron
        Subject Public Key Info:
            Public Key Algorithm: rsaEncryption
                Public-Key: (2048 bit)
                Modulus:
                    00:a3:4b:9c:e1:c4:5a:47:5d:a9:24:2c:95:17:4d:
                    3a:17:13:f1:7c:61:df:85:79:07:d7:ca:fb:78:01:
                    6c:f9:93:a5:ab:e4:e4:d8:33:45:ad:7d:80:ad:0e:
                    06:01:f1:96:dd:a1:bc:fd:cf:9a:cb:47:e5:0b:28:
                    8a:a5:b3:e2:e5:8f:84:d9:24:49:85:2d:52:b2:1c:
                    fa:7f:2b:f0:bd:4f:0e:fc:14:be:94:52:7b:5e:78:
                    61:c7:e5:1a:15:d0:13:78:67:5f:4e:ec:bd:39:82:
                    fb:e4:ea:60:db:10:90:73:2b:43:32:a3:d1:2d:f5:
                    63:2a:1d:7a:fe:45:60:9d:03:8a:be:3b:87:57:57:
                    3f:7c:8c:bb:b6:f8:49:b4:b9:19:e7:3c:fe:17:45:
                    ed:fb:a5:7c:96:78:15:96:a5:18:71:a1:36:42:42:
                    4a:52:a5:b9:36:69:b1:d8:1f:3a:37:20:1f:40:33:
                    49:7e:30:2d:30:95:3c:11:f6:b0:33:fb:48:13:cb:
                    8f:6f:5d:cb:ac:61:1b:de:8b:06:69:1e:3f:78:78:
                    2c:18:e0:ef:fb:55:8e:ab:88:7e:0f:b2:0d:6c:2b:
                    51:13:d5:f6:f5:96:a0:31:53:82:b4:52:58:e4:1d:
                    9b:e3:ba:f8:e4:d1:ce:71:d6:13:15:cc:c1:1f:0c:
                    d3:1b
                Exponent: 65537 (0x10001)
        X509v3 extensions:
            X509v3 Basic Constraints: 
                CA:FALSE
    Signature Algorithm: sha1WithRSAEncryption
         9f:5e:0d:b4:23:45:97:be:62:e0:55:f0:25:a1:c8:a6:9f:04:
         0a:e1:38:86:70:f0:50:32:59:33:e3:b3:fc:5d:70:f2:18:7b:
         c4:0b:19:53:47:17:d1:6d:95:83:33:42:68:9a:15:47:3e:71:
         fa:98:49:41:da:9c:5d:8e:44:8f:84:05:5c:77:82:12:3c:6d:
         c9:ba:0e:61:07:0a:22:6a:7c:12:3e:b5:97:57:92:a8:a0:e3:
         e4:a8:e5:84:d7:98:d8:ea:36:e6:5a:2f:2b:25:0f:6d:b7:21:
         1c:20:84:3d:72:d9:24:53:3a:77:a4:03:1c:02:09:df:ed:9b:
         51:49:9a:64:11:e8:7e:4a:f5:03:5a:53:62:8a:a9:eb:3e:c6:
         0a:5a:8f:8c:7b:a8:3e:c5:1a:50:a5:48:14:03:e0:e9:10:f3:
         ad:85:b8:3f:f9:38:14:48:74:07:5f:ac:23:04:28:af:b9:cb:
         c0:0c:42:d0:e8:13:07:61:a5:fc:33:e7:2c:32:7c:b2:84:aa:
         b8:e1:69:2c:0f:33:53:78:17:0a:1b:68:d9:d8:4f:5a:fb:79:
         85:d5:4e:89:05:f3:bd:c0:11:b3:af:46:6e:b8:cd:44:1f:3d:
         52:53:29:c7:c8:6f:f9:ed:97:b9:4e:6c:78:bb:f5:83:c2:c6:
         7e:48:3c:2c
-----BEGIN CERTIFICATE-----
MIIDWjCCAkKgAwIBAgIBATANBgkqhkiG9w0BAQUFADB9MRMwEQYDVQQDDApFbHl0
cm9uIENBMRAwDgYDVQQIDAdFbHl0cm9uMQswCQYDVQQGEwJVSzEiMCAGCSqGSIb3
DQEJARYTZWx5dHJvbkB3aWxkZmx5Lm9yZzEjMCEGA1UECgwaUm9vdCBDZXJ0aWZp
Y2F0ZSBBdXRob3JpdHkwHhcNMTYwMTI5MTA0MDM1WhcNMjYwMTI2MTA0MDM1WjBV
MRAwDgYDVQQDEwdGaXJlZmx5MRAwDgYDVQQIEwdFbHl0cm9uMQswCQYDVQQGEwJV
SzEQMA4GA1UEChMHRWx5dHJvbjEQMA4GA1UECxMHRWx5dHJvbjCCASIwDQYJKoZI
hvcNAQEBBQADggEPADCCAQoCggEBAKNLnOHEWkddqSQslRdNOhcT8Xxh34V5B9fK
+3gBbPmTpavk5NgzRa19gK0OBgHxlt2hvP3PmstH5QsoiqWz4uWPhNkkSYUtUrIc
+n8r8L1PDvwUvpRSe154YcflGhXQE3hnX07svTmC++TqYNsQkHMrQzKj0S31Yyod
ev5FYJ0Dir47h1dXP3yMu7b4SbS5Gec8/hdF7fulfJZ4FZalGHGhNkJCSlKluTZp
sdgfOjcgH0AzSX4wLTCVPBH2sDP7SBPLj29dy6xhG96LBmkeP3h4LBjg7/tVjquI
fg+yDWwrURPV9vWWoDFTgrRSWOQdm+O6+OTRznHWExXMwR8M0xsCAwEAAaMNMAsw
CQYDVR0TBAIwADANBgkqhkiG9w0BAQUFAAOCAQEAn14NtCNFl75i4FXwJaHIpp8E
CuE4hnDwUDJZM+Oz/F1w8hh7xAsZU0cX0W2VgzNCaJoVRz5x+phJQdqcXY5Ej4QF
XHeCEjxtyboOYQcKImp8Ej61l1eSqKDj5KjlhNeY2Oo25lovKyUPbbchHCCEPXLZ
JFM6d6QDHAIJ3+2bUUmaZBHofkr1A1pTYoqp6z7GClqPjHuoPsUaUKVIFAPg6RDz
rYW4P/k4FEh0B1+sIwQor7nLwAxC0OgTB2Gl/DPnLDJ8soSquOFpLA8zU3gXChto
2dhPWvt5hdVOiQXzvcARs69GbrjNRB89UlMpx8hv+e2XuU5seLv1g8LGfkg8LA==
-----END CERTIFICATE-----
