Certificate:
    Data:
        Version: 3 (0x2)
        Serial Number: 2 (0x2)
    Signature Algorithm: sha1WithRSAEncryption
        Issuer: CN=Elytron CA, ST=Elytron, C=UK/emailAddress=elytron@wildfly.org, O=Root Certificate Authority
        Validity
            Not Before: Jan 29 10:53:01 2016 GMT
            Not After : Jan 26 10:53:01 2026 GMT
        Subject: CN=Dung, ST=Elytron, C=UK, O=Elytron, OU=Elytron
        Subject Public Key Info:
            Public Key Algorithm: rsaEncryption
                Public-Key: (2048 bit)
                Modulus:
                    00:db:53:d0:30:ad:b0:a8:ea:77:6a:ee:f4:e4:23:
                    78:59:b4:52:c0:98:ef:03:e8:f9:5f:f9:cf:a5:a2:
                    55:63:74:3e:7e:d3:34:7a:d2:6e:5d:f9:47:c1:db:
                    1a:76:83:97:c2:c0:c1:23:21:04:70:02:2d:06:b6:
                    2c:f7:33:ac:03:35:a7:21:ca:3a:c1:c3:6f:ec:13:
                    3f:40:09:f9:a4:e2:2d:6a:19:89:f9:24:92:d5:d5:
                    2e:cf:38:79:06:99:5d:f3:53:90:bc:b0:5c:e3:4a:
                    07:a8:04:90:1e:44:30:c1:6e:3a:1f:d4:5a:8e:cc:
                    b4:56:c6:55:c3:18:d0:cd:04:4a:d6:a0:1b:f2:ae:
                    44:07:78:f9:b1:7e:41:ba:dd:d4:a6:96:ef:46:ac:
                    66:41:cd:0c:0d:e3:d4:1c:42:78:3d:39:6f:87:b7:
                    a7:2e:18:3a:67:79:b4:77:a6:09:30:a2:c7:7a:f0:
                    07:8d:6f:4d:30:fb:f3:e7:f6:29:e1:3d:2b:07:f7:
                    33:a9:ce:b4:b0:45:0d:10:a7:ed:b2:c8:74:9e:02:
                    b6:f4:12:f9:ba:51:c4:4e:ab:05:4d:18:71:5d:e9:
                    75:4d:19:8c:aa:b7:23:0f:bd:46:6d:d7:3d:cf:e3:
                    a4:3c:0e:fd:a2:56:33:a7:28:4c:09:a5:b6:57:5b:
                    b7:d9
                Exponent: 65537 (0x10001)
        X509v3 extensions:
            X509v3 Basic Constraints: 
                CA:FALSE
    Signature Algorithm: sha1WithRSAEncryption
         2b:cb:50:b3:08:d0:8e:44:c6:6d:e2:fe:6b:72:a1:ee:f7:51:
         7b:9d:0a:4b:c5:57:05:23:6f:7a:65:38:63:dd:e6:52:5b:3d:
         68:14:79:c6:fc:c4:96:2e:7e:b7:43:c4:82:89:a5:e5:6b:06:
         84:5d:29:ea:be:99:6b:b5:7d:42:fa:27:e3:f8:32:6d:38:42:
         a3:ec:cc:5a:07:02:61:95:56:dd:9d:d7:90:2e:79:86:7e:bb:
         5a:95:d9:bd:3b:b2:52:1a:53:d8:bb:c2:f9:f7:7e:97:c7:85:
         96:3e:84:35:72:df:d7:22:58:d8:34:30:87:07:a4:61:9b:6e:
         91:b8:8b:0c:2d:53:12:1b:dc:21:8c:a2:f3:ad:b2:45:5f:8f:
         cd:55:75:3a:26:9b:68:ab:d8:61:9e:82:22:37:a7:10:b5:9f:
         47:1d:c0:cf:c5:11:47:fa:e7:6b:62:0f:7d:52:1c:43:72:7e:
         82:0a:1a:af:d2:48:1a:65:e9:ed:0c:8e:cd:83:a5:2d:15:2a:
         6f:ab:c3:e5:ca:47:f8:d6:b6:fa:a7:a3:fb:43:83:63:1c:f0:
         d1:73:35:39:69:12:40:25:a6:7e:d2:fa:39:02:7c:ab:26:a7:
         30:6f:20:3a:36:8a:ba:b8:92:94:d1:b0:ac:2c:6c:11:c7:74:
         9f:78:75:04
-----BEGIN CERTIFICATE-----
MIIDVzCCAj+gAwIBAgIBAjANBgkqhkiG9w0BAQUFADB9MRMwEQYDVQQDDApFbHl0
cm9uIENBMRAwDgYDVQQIDAdFbHl0cm9uMQswCQYDVQQGEwJVSzEiMCAGCSqGSIb3
DQEJARYTZWx5dHJvbkB3aWxkZmx5Lm9yZzEjMCEGA1UECgwaUm9vdCBDZXJ0aWZp
Y2F0ZSBBdXRob3JpdHkwHhcNMTYwMTI5MTA1MzAxWhcNMjYwMTI2MTA1MzAxWjBS
MQ0wCwYDVQQDEwREdW5nMRAwDgYDVQQIEwdFbHl0cm9uMQswCQYDVQQGEwJVSzEQ
MA4GA1UEChMHRWx5dHJvbjEQMA4GA1UECxMHRWx5dHJvbjCCASIwDQYJKoZIhvcN
AQEBBQADggEPADCCAQoCggEBANtT0DCtsKjqd2ru9OQjeFm0UsCY7wPo+V/5z6Wi
VWN0Pn7TNHrSbl35R8HbGnaDl8LAwSMhBHACLQa2LPczrAM1pyHKOsHDb+wTP0AJ
+aTiLWoZifkkktXVLs84eQaZXfNTkLywXONKB6gEkB5EMMFuOh/UWo7MtFbGVcMY
0M0EStagG/KuRAd4+bF+Qbrd1KaW70asZkHNDA3j1BxCeD05b4e3py4YOmd5tHem
CTCix3rwB41vTTD78+f2KeE9Kwf3M6nOtLBFDRCn7bLIdJ4CtvQS+bpRxE6rBU0Y
cV3pdU0ZjKq3Iw+9Rm3XPc/jpDwO/aJWM6coTAmltldbt9kCAwEAAaMNMAswCQYD
VR0TBAIwADANBgkqhkiG9w0BAQUFAAOCAQEAK8tQswjQjkTGbeL+a3Kh7vdRe50K
S8VXBSNvemU4Y93mUls9aBR5xvzEli5+t0PEgoml5WsGhF0p6r6Za7V9Qvon4/gy
bThCo+zMWgcCYZVW3Z3XkC55hn67WpXZvTuyUhpT2LvC+fd+l8eFlj6ENXLf1yJY
2DQwhwekYZtukbiLDC1TEhvcIYyi862yRV+PzVV1OiabaKvYYZ6CIjenELWfRx3A
z8URR/rna2IPfVIcQ3J+ggoar9JIGmXp7QyOzYOlLRUqb6vD5cpH+Na2+qej+0OD
Yxzw0XM1OWkSQCWmftL6OQJ8qyanMG8gOjaKuriSlNGwrCxsEcd0n3h1BA==
-----END CERTIFICATE-----
