Certificate:
    Data:
        Version: 3 (0x2)
        Serial Number: 3 (0x3)
    Signature Algorithm: sha1WithRSAEncryption
        Issuer: CN=Elytron CA, ST=Elytron, C=UK/emailAddress=elytron@wildfly.org, O=Root Certificate Authority
        Validity
            Not Before: Jan 29 10:55:58 2016 GMT
            Not After : Jan 26 10:55:58 2026 GMT
        Subject: CN=Ladybird, ST=Elytron, C=UK, O=Elytron, OU=Elytron
        Subject Public Key Info:
            Public Key Algorithm: rsaEncryption
                Public-Key: (2048 bit)
                Modulus:
                    00:b4:40:66:5e:a7:76:fb:17:37:a2:34:56:b2:5b:
                    13:cb:23:1f:07:ff:6c:a0:fa:2f:df:2e:54:84:49:
                    93:b8:aa:53:3d:a6:4a:a7:30:b5:60:5c:5d:16:bc:
                    f9:3d:8b:5a:6d:ab:52:ed:38:5b:30:5f:cd:b4:81:
                    77:2d:48:5a:2b:d9:c2:48:8f:3d:b8:81:37:f6:db:
                    61:6b:c7:85:12:18:b0:b9:93:c6:c0:07:f8:c5:33:
                    fe:52:36:cd:5e:e7:52:28:9c:14:8a:e6:25:4f:d1:
                    8b:9b:30:3b:67:b5:c4:b4:8e:27:34:5f:f4:af:bf:
                    c7:d9:78:77:1c:bd:3d:41:00:66:9f:78:e2:fd:07:
                    f6:54:ef:6b:e3:c1:4d:8a:1c:55:67:e6:5d:0d:f6:
                    90:da:1e:a5:56:13:4d:db:db:f2:a7:a4:cc:1a:f9:
                    1b:32:cc:2e:0c:38:3e:95:c5:44:ae:f1:b9:3d:39:
                    75:67:8f:a4:f1:7d:51:d9:38:eb:ff:0a:d3:a8:a9:
                    36:6d:58:dd:8d:ca:c3:95:22:75:22:5b:13:4b:7f:
                    ec:1b:cf:f9:b4:4a:8e:46:9e:ed:05:43:ab:3a:d8:
                    f5:f8:0e:6a:8d:ef:63:3a:34:83:07:db:99:7a:7d:
                    f5:32:0c:aa:65:f2:a5:5e:f9:82:f7:56:bf:d2:50:
                    51:2f
                Exponent: 65537 (0x10001)
        X509v3 extensions:
            X509v3 Basic Constraints: 
                CA:FALSE
    Signature Algorithm: sha1WithRSAEncryption
         6b:bb:53:a4:a1:13:c3:a1:e3:d7:57:6f:51:de:e3:2e:6d:73:
         35:c1:61:7c:d4:f5:5b:d8:c6:b0:02:89:dc:bc:83:20:49:79:
         18:b2:12:cf:6d:d0:38:e0:fa:d5:a9:38:a8:f5:95:3c:0a:e3:
         b2:0a:05:c4:7e:15:17:64:4c:06:bd:c4:73:08:be:ec:63:14:
         85:67:9d:b2:7f:5e:65:5d:5a:72:2c:b4:75:a2:2d:d9:1e:61:
         7b:4d:d2:69:0b:ae:a0:65:2f:05:3a:16:ac:0e:24:84:4a:aa:
         cc:e3:59:02:9f:45:bd:15:08:f6:ee:e8:ba:d2:a1:ae:26:3d:
         14:a9:e3:6a:88:95:9a:79:88:84:02:f8:61:f8:b1:fa:6d:fc:
         e7:d5:26:60:2f:59:f5:c0:40:d5:f7:c8:25:ee:1a:29:5a:1b:
         ff:ba:bd:77:ff:4e:40:66:d6:7a:05:85:88:ae:08:89:06:73:
         ad:9a:41:f2:ba:d5:7a:57:ee:c2:bd:4a:89:c8:d7:66:61:51:
         e8:bd:11:d8:20:da:f9:ad:d1:de:22:54:df:64:fd:24:b8:45:
         99:59:5b:26:84:a6:be:e9:39:9e:98:2c:73:cd:e6:73:f8:21:
         e3:c6:6b:43:f0:fc:e3:75:ef:f8:9e:35:21:ef:c4:31:fd:1f:
         14:40:75:04
-----BEGIN CERTIFICATE-----
MIIDWzCCAkOgAwIBAgIBAzANBgkqhkiG9w0BAQUFADB9MRMwEQYDVQQDDApFbHl0
cm9uIENBMRAwDgYDVQQIDAdFbHl0cm9uMQswCQYDVQQGEwJVSzEiMCAGCSqGSIb3
DQEJARYTZWx5dHJvbkB3aWxkZmx5Lm9yZzEjMCEGA1UECgwaUm9vdCBDZXJ0aWZp
Y2F0ZSBBdXRob3JpdHkwHhcNMTYwMTI5MTA1NTU4WhcNMjYwMTI2MTA1NTU4WjBW
MREwDwYDVQQDEwhMYWR5YmlyZDEQMA4GA1UECBMHRWx5dHJvbjELMAkGA1UEBhMC
VUsxEDAOBgNVBAoTB0VseXRyb24xEDAOBgNVBAsTB0VseXRyb24wggEiMA0GCSqG
SIb3DQEBAQUAA4IBDwAwggEKAoIBAQC0QGZep3b7FzeiNFayWxPLIx8H/2yg+i/f
LlSESZO4qlM9pkqnMLVgXF0WvPk9i1ptq1LtOFswX820gXctSFor2cJIjz24gTf2
22Frx4USGLC5k8bAB/jFM/5SNs1e51IonBSK5iVP0YubMDtntcS0jic0X/Svv8fZ
eHccvT1BAGafeOL9B/ZU72vjwU2KHFVn5l0N9pDaHqVWE03b2/KnpMwa+RsyzC4M
OD6VxUSu8bk9OXVnj6TxfVHZOOv/CtOoqTZtWN2NysOVInUiWxNLf+wbz/m0So5G
nu0FQ6s62PX4DmqN72M6NIMH25l6ffUyDKpl8qVe+YL3Vr/SUFEvAgMBAAGjDTAL
MAkGA1UdEwQCMAAwDQYJKoZIhvcNAQEFBQADggEBAGu7U6ShE8Oh49dXb1He4y5t
czXBYXzU9VvYxrACidy8gyBJeRiyEs9t0Djg+tWpOKj1lTwK47IKBcR+FRdkTAa9
xHMIvuxjFIVnnbJ/XmVdWnIstHWiLdkeYXtN0mkLrqBlLwU6FqwOJIRKqszjWQKf
Rb0VCPbu6LrSoa4mPRSp42qIlZp5iIQC+GH4sfpt/OfVJmAvWfXAQNX3yCXuGila
G/+6vXf/TkBm1noFhYiuCIkGc62aQfK61XpX7sK9SonI12ZhUei9Edgg2vmt0d4i
VN9k/SS4RZlZWyaEpr7pOZ6YLHPN5nP4IePGa0Pw/ON17/ieNSHvxDH9HxRAdQQ=
-----END CERTIFICATE-----
