Certificate:
    Data:
        Version: 3 (0x2)
        Serial Number: 5 (0x5)
    Signature Algorithm: sha1WithRSAEncryption
        Issuer: CN=Elytron CA, ST=Elytron, C=UK/emailAddress=elytron@wildfly.org, O=Root Certificate Authority
        Validity
            Not Before: Aug 14 10:31:26 2016 GMT
            Not After : Aug 12 10:31:26 2026 GMT
        Subject: CN=localhost, ST=Elytron, C=CZ, O=Elytron, OU=Elytron
        Subject Public Key Info:
            Public Key Algorithm: rsaEncryption
                Public-Key: (2048 bit)
                Modulus:
                    00:99:ce:e8:11:fb:82:38:7e:03:c6:72:90:5a:ec:
                    0b:63:2d:3b:3b:b7:4d:c9:bb:7d:9d:6b:1e:8a:a7:
                    32:a0:28:62:5e:30:46:8f:32:0b:23:a4:95:da:f9:
                    62:e0:a4:01:b1:a9:51:b2:ab:36:09:37:dc:ec:42:
                    8a:aa:13:78:77:22:c9:5c:04:37:2b:47:73:b5:93:
                    d1:80:bc:aa:40:bc:28:04:6e:ee:05:a6:dc:8b:7c:
                    c1:82:81:e4:91:68:06:74:07:e8:42:cc:5b:26:d3:
                    d8:be:96:21:9c:52:7d:f4:5c:72:d8:f3:b4:a1:b3:
                    06:9f:e4:39:d8:c4:bb:2a:24:23:b9:57:a5:9a:4a:
                    95:e7:45:c0:d7:54:9c:41:f6:3a:e7:df:ab:7b:8e:
                    59:ce:9a:60:f8:26:f7:62:ca:9e:c4:a3:54:03:28:
                    fe:34:60:ef:ac:c7:12:9e:ef:79:24:74:c0:1a:e0:
                    1d:58:41:48:c4:c1:06:2b:0f:de:cf:11:79:09:b2:
                    9f:4e:dc:e8:11:9a:ba:af:e5:68:74:45:54:74:a4:
                    fe:03:1d:4a:da:1d:22:72:e3:e2:67:c9:2c:b8:7d:
                    9c:45:ab:8f:3a:da:81:3c:7a:1d:ee:e2:ea:9f:3b:
                    0b:8b:7a:c7:9c:59:51:71:92:48:f1:76:e8:85:ed:
                    0c:e7
                Exponent: 65537 (0x10001)
        X509v3 extensions:
            X509v3 Basic Constraints: 
                CA:FALSE
    Signature Algorithm: sha1WithRSAEncryption
         b4:44:5d:7b:d7:31:47:4d:a8:de:ac:71:43:d0:04:35:35:ea:
         6a:f5:05:2d:d7:b8:c0:4f:d8:3b:9e:44:4f:b6:69:e9:61:20:
         43:05:b4:15:09:31:62:b2:8c:12:91:01:81:5f:4e:3f:a6:f7:
         0d:05:5e:5e:e4:78:54:d9:2b:cf:8f:0d:85:dd:dc:ec:08:2f:
         b8:05:0c:5b:30:75:b0:14:c1:e9:00:62:46:57:d3:a9:38:c6:
         27:a7:e2:cd:7a:14:92:d8:8b:59:3f:45:bd:0c:a8:d8:23:b2:
         bc:14:18:04:d8:5a:d7:18:18:0f:b2:65:74:ee:2e:09:d0:9e:
         22:ee:20:21:46:aa:55:73:f1:70:0f:b0:72:f5:7c:28:a3:c0:
         77:2f:23:c3:64:23:15:4b:2d:58:69:a3:36:38:e4:5d:04:5b:
         28:ae:0d:96:80:d7:eb:cb:03:6a:c3:39:f7:04:34:01:da:fa:
         5d:32:30:83:be:ae:a1:b7:32:d4:a6:24:51:75:ef:fe:b2:c2:
         27:12:d2:71:b2:ad:c2:8b:6d:84:c8:8f:6f:17:c3:74:9c:87:
         f2:2b:52:e0:17:bf:fd:a1:26:2e:bb:8f:f8:35:1d:5c:08:7c:
         c1:c2:b1:2b:8b:ca:f3:bf:01:cc:d7:5a:84:e6:a1:b2:23:f0:
         57:ba:b7:c9
-----BEGIN CERTIFICATE-----
MIIDXDCCAkSgAwIBAgIBBTANBgkqhkiG9w0BAQUFADB9MRMwEQYDVQQDDApFbHl0
cm9uIENBMRAwDgYDVQQIDAdFbHl0cm9uMQswCQYDVQQGEwJVSzEiMCAGCSqGSIb3
DQEJARYTZWx5dHJvbkB3aWxkZmx5Lm9yZzEjMCEGA1UECgwaUm9vdCBDZXJ0aWZp
Y2F0ZSBBdXRob3JpdHkwHhcNMTYwODE0MTAzMTI2WhcNMjYwODEyMTAzMTI2WjBX
MRIwEAYDVQQDEwlsb2NhbGhvc3QxEDAOBgNVBAgTB0VseXRyb24xCzAJBgNVBAYT
AkNaMRAwDgYDVQQKEwdFbHl0cm9uMRAwDgYDVQQLEwdFbHl0cm9uMIIBIjANBgkq
hkiG9w0BAQEFAAOCAQ8AMIIBCgKCAQEAmc7oEfuCOH4DxnKQWuwLYy07O7dNybt9
nWseiqcyoChiXjBGjzILI6SV2vli4KQBsalRsqs2CTfc7EKKqhN4dyLJXAQ3K0dz
tZPRgLyqQLwoBG7uBabci3zBgoHkkWgGdAfoQsxbJtPYvpYhnFJ99Fxy2PO0obMG
n+Q52MS7KiQjuVelmkqV50XA11ScQfY659+re45Zzppg+Cb3YsqexKNUAyj+NGDv
rMcSnu95JHTAGuAdWEFIxMEGKw/ezxF5CbKfTtzoEZq6r+VodEVUdKT+Ax1K2h0i
cuPiZ8ksuH2cRauPOtqBPHod7uLqnzsLi3rHnFlRcZJI8Xbohe0M5wIDAQABow0w
CzAJBgNVHRMEAjAAMA0GCSqGSIb3DQEBBQUAA4IBAQC0RF171zFHTajerHFD0AQ1
Nepq9QUt17jAT9g7nkRPtmnpYSBDBbQVCTFisowSkQGBX04/pvcNBV5e5HhU2SvP
jw2F3dzsCC+4BQxbMHWwFMHpAGJGV9OpOMYnp+LNehSS2ItZP0W9DKjYI7K8FBgE
2FrXGBgPsmV07i4J0J4i7iAhRqpVc/FwD7By9Xwoo8B3LyPDZCMVSy1YaaM2OORd
BFsorg2WgNfrywNqwzn3BDQB2vpdMjCDvq6htzLUpiRRde/+ssInEtJxsq3Ci22E
yI9vF8N0nIfyK1LgF7/9oSYuu4/4NR1cCHzBwrEri8rzvwHM11qE5qGyI/BXurfJ
-----END CERTIFICATE-----
