Certificate:
    Data:
        Version: 3 (0x2)
        Serial Number: 6 (0x6)
    Signature Algorithm: sha1WithRSAEncryption
        Issuer: CN=Elytron CA, ST=Elytron, C=UK/emailAddress=elytron@wildfly.org, O=Root Certificate Authority
        Validity
            Not Before: Feb  1 09:28:37 2018 GMT
            Not After : Jan 30 09:28:37 2028 GMT
        Subject: CN=Elytron ICA, ST=Elytron, C=UK, O=Intermediate Certificate Authority
        Subject Public Key Info:
            Public Key Algorithm: rsaEncryption
                Public-Key: (2048 bit)
                Modulus:
                    00:da:0b:4e:7a:50:a1:d0:68:07:bf:23:3b:87:8e:
                    c6:3a:d6:22:7f:99:80:f3:af:fe:44:cd:4e:a2:4f:
                    1e:e5:fe:84:67:36:45:6d:bb:c8:c5:33:a1:e1:b5:
                    a9:e9:0b:92:66:91:ba:6c:02:f6:fb:e9:22:2a:68:
                    9b:a6:05:9f:fc:65:7e:17:fb:0e:ff:29:7c:e5:87:
                    97:7c:10:97:90:b8:92:e3:55:1e:98:d0:47:f2:a1:
                    2f:93:98:72:03:42:c7:cb:68:d3:71:29:97:26:06:
                    9c:61:2a:69:61:7a:9c:77:25:50:01:20:89:d2:ea:
                    5f:3f:d2:3c:e8:2a:b4:8e:f1:eb:d0:1d:a9:8a:18:
                    f7:28:29:f7:1c:44:08:9b:07:a2:9d:bb:12:f1:b5:
                    f5:73:0b:86:54:e4:87:c4:e7:60:59:2b:c9:de:cf:
                    0d:5d:ef:f9:88:95:33:cf:8a:8e:c2:33:c1:9c:a0:
                    ef:17:0b:7c:8e:b0:dd:91:ea:da:d3:c2:02:02:c8:
                    dc:84:bb:a6:5a:9c:ae:2d:27:41:75:7d:73:c2:66:
                    db:cb:34:7b:cf:e5:ea:75:46:bb:84:68:db:95:48:
                    65:01:89:a1:df:a1:ba:bd:de:a7:92:8d:48:c6:0c:
                    9a:cf:0b:6c:9c:76:cb:a7:6c:b4:0e:3b:35:c1:ae:
                    fb:f1
                Exponent: 65537 (0x10001)
        X509v3 extensions:
            X509v3 Basic Constraints: critical
                CA:TRUE, pathlen:0
    Signature Algorithm: sha1WithRSAEncryption
         41:d4:92:f5:99:32:3c:86:b1:f5:f9:ff:43:bd:1e:84:d6:b4:
         85:a3:0c:65:b2:e7:b3:ed:f4:06:92:97:86:e0:bb:99:d8:99:
         e6:28:5e:c0:62:7d:c6:7f:21:a4:5a:49:6b:74:3c:f9:a7:3e:
         71:3f:36:70:85:c5:c6:c6:7a:ec:65:f4:7e:c3:47:60:a8:79:
         50:5c:ef:3d:35:7f:7c:3d:a8:57:c4:db:5f:1d:56:10:26:50:
         28:4c:1c:f4:1b:bd:bc:85:d7:e4:25:29:71:ed:7f:d2:7a:14:
         7f:48:30:e1:c2:ca:2e:95:64:93:0f:fa:eb:cc:f2:05:33:61:
         10:03:7c:71:6b:18:4d:66:14:5f:db:af:e7:12:7f:8f:b0:6e:
         36:9d:0f:11:0e:62:17:91:88:c8:3b:e5:4d:98:65:60:36:ec:
         dd:dd:64:b8:52:80:c9:ef:94:99:a6:95:65:47:f5:39:7d:00:
         8c:26:d6:3c:a4:25:6f:9b:87:cb:9d:8a:de:f2:4d:cc:09:f3:
         5c:47:26:af:6a:02:ae:75:45:67:f4:f1:77:3f:89:56:b4:5c:
         fa:ba:38:bf:be:93:e7:ac:cc:46:a6:10:61:16:3d:6c:7d:56:
         b4:af:65:d6:4b:39:b1:c5:02:f5:5a:4a:ce:06:8c:6d:e7:e0:
         43:d2:27:0a
-----BEGIN CERTIFICATE-----
MIIDcDCCAligAwIBAgIBBjANBgkqhkiG9w0BAQUFADB9MRMwEQYDVQQDDApFbHl0
cm9uIENBMRAwDgYDVQQIDAdFbHl0cm9uMQswCQYDVQQGEwJVSzEiMCAGCSqGSIb3
DQEJARYTZWx5dHJvbkB3aWxkZmx5Lm9yZzEjMCEGA1UECgwaUm9vdCBDZXJ0aWZp
Y2F0ZSBBdXRob3JpdHkwHhcNMTgwMjAxMDkyODM3WhcNMjgwMTMwMDkyODM3WjBi
MRQwEgYDVQQDDAtFbHl0cm9uIElDQTEQMA4GA1UECAwHRWx5dHJvbjELMAkGA1UE
BhMCVUsxKzApBgNVBAoMIkludGVybWVkaWF0ZSBDZXJ0aWZpY2F0ZSBBdXRob3Jp
dHkwggEiMA0GCSqGSIb3DQEBAQUAA4IBDwAwggEKAoIBAQDaC056UKHQaAe/IzuH
jsY61iJ/mYDzr/5EzU6iTx7l/oRnNkVtu8jFM6HhtanpC5JmkbpsAvb76SIqaJum
BZ/8ZX4X+w7/KXzlh5d8EJeQuJLjVR6Y0EfyoS+TmHIDQsfLaNNxKZcmBpxhKmlh
epx3JVABIInS6l8/0jzoKrSO8evQHamKGPcoKfccRAibB6KduxLxtfVzC4ZU5IfE
52BZK8nezw1d7/mIlTPPio7CM8GcoO8XC3yOsN2R6trTwgICyNyEu6ZanK4tJ0F1
fXPCZtvLNHvP5ep1RruEaNuVSGUBiaHfobq93qeSjUjGDJrPC2ycdsunbLQOOzXB
rvvxAgMBAAGjFjAUMBIGA1UdEwEB/wQIMAYBAf8CAQAwDQYJKoZIhvcNAQEFBQAD
ggEBAEHUkvWZMjyGsfX5/0O9HoTWtIWjDGWy57Pt9AaSl4bgu5nYmeYoXsBifcZ/
IaRaSWt0PPmnPnE/NnCFxcbGeuxl9H7DR2CoeVBc7z01f3w9qFfE218dVhAmUChM
HPQbvbyF1+QlKXHtf9J6FH9IMOHCyi6VZJMP+uvM8gUzYRADfHFrGE1mFF/br+cS
f4+wbjadDxEOYheRiMg75U2YZWA27N3dZLhSgMnvlJmmlWVH9Tl9AIwm1jykJW+b
h8udit7yTcwJ81xHJq9qAq51RWf08Xc/iVa0XPq6OL++k+eszEamEGEWPWx9VrSv
ZdZLObHFAvVaSs4GjG3n4EPSJwo=
-----END CERTIFICATE-----
